(dp0
(S'forward'
p1
S'green'
p2
Ntp3
(dp4
g1
F1.9996025031621665
sNF-4.726855910808684
sS'right'
p5
F0.7216264080829928
sS'left'
p6
F0.6490499830728517
ss(g6
g2
g1
tp7
(dp8
g1
F0.6814325915079449
sNF-4.516732315301735
sg5
F0.6012439924066376
sg6
F-17.184940918546708
ss(g5
g2
Ntp9
(dp10
g1
F0.7488462911902027
sNF-4.779840890873989
sg5
F2.1250144063747523
sg6
F0.743189625880498
ss(g5
g2
g5
tp11
(dp12
g1
F0.7197029776193298
sNF0.0
sg5
F1.4464417372974452
sg6
F0.0
ss(g1
g2
g6
tp13
(dp14
g1
F1.9988362927738605
sNF-5.4736752332017335
sg5
F0.9172274508473044
sg6
F0.48389525604754813
ss(g6
g2
g5
tp15
(dp16
g1
F0.0
sNF-3.8314401374088995
sg5
F0.6086293051135616
sg6
F-16.368014266758095
ss(g5
S'red'
p17
g1
tp18
(dp19
g1
F-12.827543997091816
sNF1.1728206048668235
sg5
F-3.439637896045074
sg6
F-16.30971461565363
ss(g1
g17
g1
tp20
(dp21
g1
F-10.840381149805147
sNF1.495095540097993
sg5
F0.3437831248456552
sg6
F-9.203675076999026
ss(g6
g17
Ntp22
(dp23
g1
F-10.794699105417365
sNF2.580111914843306
sg5
F0.774612748970871
sg6
F-10.224680754662971
ss(g1
g17
g5
tp24
(dp25
g1
F-6.25077770180529
sNF1.6617596953179326
sg5
F0.84527148204657
sg6
F-39.24995008920871
ss(g6
g17
g6
tp26
(dp27
g1
F-8.854218356790353
sNF1.6898772811069458
sg5
F0.20820123753327013
sg6
F-11.564571768113172
ss(g5
g17
g6
tp28
(dp29
g1
F-8.943561985745188
sNF0.7436893021544551
sg5
F-3.291896089788338
sg6
F-10.843328135233943
ss(g5
g17
g5
tp30
(dp31
g1
F-16.87904949952674
sNF0.5279492846638694
sg5
F0.0
sg6
F0.0
ss(g6
g17
g5
tp32
(dp33
g1
F0.0
sNF1.9877699285651098
sg5
F0.3757691343430453
sg6
F-33.39449934103884
ss(g5
g2
g1
tp34
(dp35
g1
F-0.09816131230521752
sNF0.0
sg5
F1.1570800560246617
sg6
F-17.359583285672038
ss(g1
g2
g1
tp36
(dp37
g1
F2.24448983212464
sNF-4.061945473380875
sg5
F1.1256145686058798
sg6
F-17.200979596886572
ss(g1
g17
g6
tp38
(dp39
g1
F-11.242274632235102
sNF1.5359949089191836
sg5
F-6.036251320513755
sg6
F-9.5132737050048
ss(g6
g2
Ntp40
(dp41
g1
F0.7833467755982316
sNF-4.760615167052972
sg5
F0.5426236321328541
sg6
F1.7068209524508107
ss(g1
g2
g5
tp42
(dp43
g1
F1.7912771485823806
sNF-4.10316420518784
sg5
F0.63481922007313
sg6
F-12.321083450163647
ss(g1
g17
Ntp44
(dp45
g1
F-10.748133318290737
sNF1.9633811949460753
sg5
F0.8347226923085536
sg6
F-10.80089226244294
ss(g6
g17
g1
tp46
(dp47
g1
F-10.226925759528402
sNF2.0877262698142838
sg5
F0.9662274746984688
sg6
F-10.485614812154093
ss(g5
g17
Ntp48
(dp49
g1
F-18.85129194613171
sNF0.14373714493468173
sg5
F-11.736015583383292
sg6
F-10.748232735078318
ss(g6
g2
g6
tp50
(dp51
g1
F0.6757523265478418
sNF-5.429592194949327
sg5
F1.3098578566752148
sg6
F2.2724749800886497
ss(g5
g2
g6
tp52
(dp53
g1
F0.6003431820105631
sNF-3.8135524997231727
sg5
F1.8017912273637184
sg6
F0.8103509674605895
ss.